; ModuleID = '57/2214.c'
source_filename = "57/2214.c"
target datalayout = "e-m:e-p270:32:32-p271:32:32-p272:64:64-i64:64-f80:128-n8:16:32:64-S128"
target triple = "x86_64-pc-linux-gnu"

@.str = private unnamed_addr constant [3 x i8] c"%d\00", align 1
@.str.1 = private unnamed_addr constant [3 x i8] c"%s\00", align 1
@.str.2 = private unnamed_addr constant [3 x i8] c"%c\00", align 1
@.str.3 = private unnamed_addr constant [4 x i8] c"%c\0A\00", align 1

; Function Attrs: noinline nounwind uwtable
define dso_local void @main() #0 {
  %1 = alloca i32, align 4
  %2 = alloca i32, align 4
  %3 = alloca i32, align 4
  %4 = alloca [50 x i32], align 16
  %5 = alloca [50 x [20 x i8]], align 16
  %6 = call i32 (i8*, ...) @__isoc99_scanf(i8* getelementptr inbounds ([3 x i8], [3 x i8]* @.str, i64 0, i64 0), i32* %1)
  store i32 0, i32* %2, align 4
  br label %7

7:                                                ; preds = %16, %0
  %8 = load i32, i32* %2, align 4
  %9 = load i32, i32* %1, align 4
  %10 = icmp slt i32 %8, %9
  br i1 %10, label %11, label %19

11:                                               ; preds = %7
  %12 = load i32, i32* %2, align 4
  %13 = sext i32 %12 to i64
  %14 = getelementptr inbounds [50 x [20 x i8]], [50 x [20 x i8]]* %5, i64 0, i64 %13
  %15 = call i32 (i8*, ...) @__isoc99_scanf(i8* getelementptr inbounds ([3 x i8], [3 x i8]* @.str.1, i64 0, i64 0), [20 x i8]* %14)
  br label %16

16:                                               ; preds = %11
  %17 = load i32, i32* %2, align 4
  %18 = add nsw i32 %17, 1
  store i32 %18, i32* %2, align 4
  br label %7

19:                                               ; preds = %7
  store i32 0, i32* %2, align 4
  br label %20

20:                                               ; preds = %34, %19
  %21 = load i32, i32* %2, align 4
  %22 = load i32, i32* %1, align 4
  %23 = icmp slt i32 %21, %22
  br i1 %23, label %24, label %37

24:                                               ; preds = %20
  %25 = load i32, i32* %2, align 4
  %26 = sext i32 %25 to i64
  %27 = getelementptr inbounds [50 x [20 x i8]], [50 x [20 x i8]]* %5, i64 0, i64 %26
  %28 = getelementptr inbounds [20 x i8], [20 x i8]* %27, i64 0, i64 0
  %29 = call i64 @strlen(i8* %28) #3
  %30 = trunc i64 %29 to i32
  %31 = load i32, i32* %2, align 4
  %32 = sext i32 %31 to i64
  %33 = getelementptr inbounds [50 x i32], [50 x i32]* %4, i64 0, i64 %32
  store i32 %30, i32* %33, align 4
  br label %34

34:                                               ; preds = %24
  %35 = load i32, i32* %2, align 4
  %36 = add nsw i32 %35, 1
  store i32 %36, i32* %2, align 4
  br label %20

37:                                               ; preds = %20
  store i32 0, i32* %2, align 4
  br label %38

38:                                               ; preds = %287, %37
  %39 = load i32, i32* %2, align 4
  %40 = load i32, i32* %1, align 4
  %41 = icmp slt i32 %39, %40
  br i1 %41, label %42, label %290

42:                                               ; preds = %38
  %43 = load i32, i32* %2, align 4
  %44 = sext i32 %43 to i64
  %45 = getelementptr inbounds [50 x [20 x i8]], [50 x [20 x i8]]* %5, i64 0, i64 %44
  %46 = load i32, i32* %2, align 4
  %47 = sext i32 %46 to i64
  %48 = getelementptr inbounds [50 x i32], [50 x i32]* %4, i64 0, i64 %47
  %49 = load i32, i32* %48, align 4
  %50 = sub nsw i32 %49, 3
  %51 = sext i32 %50 to i64
  %52 = getelementptr inbounds [20 x i8], [20 x i8]* %45, i64 0, i64 %51
  %53 = load i8, i8* %52, align 1
  %54 = sext i8 %53 to i32
  %55 = icmp eq i32 %54, 105
  br i1 %55, label %56, label %120

56:                                               ; preds = %42
  %57 = load i32, i32* %2, align 4
  %58 = sext i32 %57 to i64
  %59 = getelementptr inbounds [50 x [20 x i8]], [50 x [20 x i8]]* %5, i64 0, i64 %58
  %60 = load i32, i32* %2, align 4
  %61 = sext i32 %60 to i64
  %62 = getelementptr inbounds [50 x i32], [50 x i32]* %4, i64 0, i64 %61
  %63 = load i32, i32* %62, align 4
  %64 = sub nsw i32 %63, 2
  %65 = sext i32 %64 to i64
  %66 = getelementptr inbounds [20 x i8], [20 x i8]* %59, i64 0, i64 %65
  %67 = load i8, i8* %66, align 1
  %68 = sext i8 %67 to i32
  %69 = icmp eq i32 %68, 110
  br i1 %69, label %70, label %120

70:                                               ; preds = %56
  %71 = load i32, i32* %2, align 4
  %72 = sext i32 %71 to i64
  %73 = getelementptr inbounds [50 x [20 x i8]], [50 x [20 x i8]]* %5, i64 0, i64 %72
  %74 = load i32, i32* %2, align 4
  %75 = sext i32 %74 to i64
  %76 = getelementptr inbounds [50 x i32], [50 x i32]* %4, i64 0, i64 %75
  %77 = load i32, i32* %76, align 4
  %78 = sub nsw i32 %77, 1
  %79 = sext i32 %78 to i64
  %80 = getelementptr inbounds [20 x i8], [20 x i8]* %73, i64 0, i64 %79
  %81 = load i8, i8* %80, align 1
  %82 = sext i8 %81 to i32
  %83 = icmp eq i32 %82, 103
  br i1 %83, label %84, label %120

84:                                               ; preds = %70
  store i32 0, i32* %3, align 4
  br label %85

85:                                               ; preds = %103, %84
  %86 = load i32, i32* %3, align 4
  %87 = load i32, i32* %2, align 4
  %88 = sext i32 %87 to i64
  %89 = getelementptr inbounds [50 x i32], [50 x i32]* %4, i64 0, i64 %88
  %90 = load i32, i32* %89, align 4
  %91 = sub nsw i32 %90, 4
  %92 = icmp slt i32 %86, %91
  br i1 %92, label %93, label %106

93:                                               ; preds = %85
  %94 = load i32, i32* %2, align 4
  %95 = sext i32 %94 to i64
  %96 = getelementptr inbounds [50 x [20 x i8]], [50 x [20 x i8]]* %5, i64 0, i64 %95
  %97 = load i32, i32* %3, align 4
  %98 = sext i32 %97 to i64
  %99 = getelementptr inbounds [20 x i8], [20 x i8]* %96, i64 0, i64 %98
  %100 = load i8, i8* %99, align 1
  %101 = sext i8 %100 to i32
  %102 = call i32 (i8*, ...) @printf(i8* getelementptr inbounds ([3 x i8], [3 x i8]* @.str.2, i64 0, i64 0), i32 %101)
  br label %103

103:                                              ; preds = %93
  %104 = load i32, i32* %3, align 4
  %105 = add nsw i32 %104, 1
  store i32 %105, i32* %3, align 4
  br label %85

106:                                              ; preds = %85
  %107 = load i32, i32* %2, align 4
  %108 = sext i32 %107 to i64
  %109 = getelementptr inbounds [50 x [20 x i8]], [50 x [20 x i8]]* %5, i64 0, i64 %108
  %110 = load i32, i32* %2, align 4
  %111 = sext i32 %110 to i64
  %112 = getelementptr inbounds [50 x i32], [50 x i32]* %4, i64 0, i64 %111
  %113 = load i32, i32* %112, align 4
  %114 = sub nsw i32 %113, 4
  %115 = sext i32 %114 to i64
  %116 = getelementptr inbounds [20 x i8], [20 x i8]* %109, i64 0, i64 %115
  %117 = load i8, i8* %116, align 1
  %118 = sext i8 %117 to i32
  %119 = call i32 (i8*, ...) @printf(i8* getelementptr inbounds ([4 x i8], [4 x i8]* @.str.3, i64 0, i64 0), i32 %118)
  br label %286

120:                                              ; preds = %70, %56, %42
  %121 = load i32, i32* %2, align 4
  %122 = sext i32 %121 to i64
  %123 = getelementptr inbounds [50 x [20 x i8]], [50 x [20 x i8]]* %5, i64 0, i64 %122
  %124 = load i32, i32* %2, align 4
  %125 = sext i32 %124 to i64
  %126 = getelementptr inbounds [50 x i32], [50 x i32]* %4, i64 0, i64 %125
  %127 = load i32, i32* %126, align 4
  %128 = sub nsw i32 %127, 2
  %129 = sext i32 %128 to i64
  %130 = getelementptr inbounds [20 x i8], [20 x i8]* %123, i64 0, i64 %129
  %131 = load i8, i8* %130, align 1
  %132 = sext i8 %131 to i32
  %133 = icmp eq i32 %132, 101
  br i1 %133, label %134, label %184

134:                                              ; preds = %120
  %135 = load i32, i32* %2, align 4
  %136 = sext i32 %135 to i64
  %137 = getelementptr inbounds [50 x [20 x i8]], [50 x [20 x i8]]* %5, i64 0, i64 %136
  %138 = load i32, i32* %2, align 4
  %139 = sext i32 %138 to i64
  %140 = getelementptr inbounds [50 x i32], [50 x i32]* %4, i64 0, i64 %139
  %141 = load i32, i32* %140, align 4
  %142 = sub nsw i32 %141, 1
  %143 = sext i32 %142 to i64
  %144 = getelementptr inbounds [20 x i8], [20 x i8]* %137, i64 0, i64 %143
  %145 = load i8, i8* %144, align 1
  %146 = sext i8 %145 to i32
  %147 = icmp eq i32 %146, 114
  br i1 %147, label %148, label %184

148:                                              ; preds = %134
  store i32 0, i32* %3, align 4
  br label %149

149:                                              ; preds = %167, %148
  %150 = load i32, i32* %3, align 4
  %151 = load i32, i32* %2, align 4
  %152 = sext i32 %151 to i64
  %153 = getelementptr inbounds [50 x i32], [50 x i32]* %4, i64 0, i64 %152
  %154 = load i32, i32* %153, align 4
  %155 = sub nsw i32 %154, 3
  %156 = icmp slt i32 %150, %155
  br i1 %156, label %157, label %170

157:                                              ; preds = %149
  %158 = load i32, i32* %2, align 4
  %159 = sext i32 %158 to i64
  %160 = getelementptr inbounds [50 x [20 x i8]], [50 x [20 x i8]]* %5, i64 0, i64 %159
  %161 = load i32, i32* %3, align 4
  %162 = sext i32 %161 to i64
  %163 = getelementptr inbounds [20 x i8], [20 x i8]* %160, i64 0, i64 %162
  %164 = load i8, i8* %163, align 1
  %165 = sext i8 %164 to i32
  %166 = call i32 (i8*, ...) @printf(i8* getelementptr inbounds ([3 x i8], [3 x i8]* @.str.2, i64 0, i64 0), i32 %165)
  br label %167

167:                                              ; preds = %157
  %168 = load i32, i32* %3, align 4
  %169 = add nsw i32 %168, 1
  store i32 %169, i32* %3, align 4
  br label %149

170:                                              ; preds = %149
  %171 = load i32, i32* %2, align 4
  %172 = sext i32 %171 to i64
  %173 = getelementptr inbounds [50 x [20 x i8]], [50 x [20 x i8]]* %5, i64 0, i64 %172
  %174 = load i32, i32* %2, align 4
  %175 = sext i32 %174 to i64
  %176 = getelementptr inbounds [50 x i32], [50 x i32]* %4, i64 0, i64 %175
  %177 = load i32, i32* %176, align 4
  %178 = sub nsw i32 %177, 3
  %179 = sext i32 %178 to i64
  %180 = getelementptr inbounds [20 x i8], [20 x i8]* %173, i64 0, i64 %179
  %181 = load i8, i8* %180, align 1
  %182 = sext i8 %181 to i32
  %183 = call i32 (i8*, ...) @printf(i8* getelementptr inbounds ([4 x i8], [4 x i8]* @.str.3, i64 0, i64 0), i32 %182)
  br label %285

184:                                              ; preds = %134, %120
  %185 = load i32, i32* %2, align 4
  %186 = sext i32 %185 to i64
  %187 = getelementptr inbounds [50 x [20 x i8]], [50 x [20 x i8]]* %5, i64 0, i64 %186
  %188 = load i32, i32* %2, align 4
  %189 = sext i32 %188 to i64
  %190 = getelementptr inbounds [50 x i32], [50 x i32]* %4, i64 0, i64 %189
  %191 = load i32, i32* %190, align 4
  %192 = sub nsw i32 %191, 2
  %193 = sext i32 %192 to i64
  %194 = getelementptr inbounds [20 x i8], [20 x i8]* %187, i64 0, i64 %193
  %195 = load i8, i8* %194, align 1
  %196 = sext i8 %195 to i32
  %197 = icmp eq i32 %196, 108
  br i1 %197, label %198, label %248

198:                                              ; preds = %184
  %199 = load i32, i32* %2, align 4
  %200 = sext i32 %199 to i64
  %201 = getelementptr inbounds [50 x [20 x i8]], [50 x [20 x i8]]* %5, i64 0, i64 %200
  %202 = load i32, i32* %2, align 4
  %203 = sext i32 %202 to i64
  %204 = getelementptr inbounds [50 x i32], [50 x i32]* %4, i64 0, i64 %203
  %205 = load i32, i32* %204, align 4
  %206 = sub nsw i32 %205, 1
  %207 = sext i32 %206 to i64
  %208 = getelementptr inbounds [20 x i8], [20 x i8]* %201, i64 0, i64 %207
  %209 = load i8, i8* %208, align 1
  %210 = sext i8 %209 to i32
  %211 = icmp eq i32 %210, 121
  br i1 %211, label %212, label %248

212:                                              ; preds = %198
  store i32 0, i32* %3, align 4
  br label %213

213:                                              ; preds = %231, %212
  %214 = load i32, i32* %3, align 4
  %215 = load i32, i32* %2, align 4
  %216 = sext i32 %215 to i64
  %217 = getelementptr inbounds [50 x i32], [50 x i32]* %4, i64 0, i64 %216
  %218 = load i32, i32* %217, align 4
  %219 = sub nsw i32 %218, 3
  %220 = icmp slt i32 %214, %219
  br i1 %220, label %221, label %234

221:                                              ; preds = %213
  %222 = load i32, i32* %2, align 4
  %223 = sext i32 %222 to i64
  %224 = getelementptr inbounds [50 x [20 x i8]], [50 x [20 x i8]]* %5, i64 0, i64 %223
  %225 = load i32, i32* %3, align 4
  %226 = sext i32 %225 to i64
  %227 = getelementptr inbounds [20 x i8], [20 x i8]* %224, i64 0, i64 %226
  %228 = load i8, i8* %227, align 1
  %229 = sext i8 %228 to i32
  %230 = call i32 (i8*, ...) @printf(i8* getelementptr inbounds ([3 x i8], [3 x i8]* @.str.2, i64 0, i64 0), i32 %229)
  br label %231

231:                                              ; preds = %221
  %232 = load i32, i32* %3, align 4
  %233 = add nsw i32 %232, 1
  store i32 %233, i32* %3, align 4
  br label %213

234:                                              ; preds = %213
  %235 = load i32, i32* %2, align 4
  %236 = sext i32 %235 to i64
  %237 = getelementptr inbounds [50 x [20 x i8]], [50 x [20 x i8]]* %5, i64 0, i64 %236
  %238 = load i32, i32* %2, align 4
  %239 = sext i32 %238 to i64
  %240 = getelementptr inbounds [50 x i32], [50 x i32]* %4, i64 0, i64 %239
  %241 = load i32, i32* %240, align 4
  %242 = sub nsw i32 %241, 3
  %243 = sext i32 %242 to i64
  %244 = getelementptr inbounds [20 x i8], [20 x i8]* %237, i64 0, i64 %243
  %245 = load i8, i8* %244, align 1
  %246 = sext i8 %245 to i32
  %247 = call i32 (i8*, ...) @printf(i8* getelementptr inbounds ([4 x i8], [4 x i8]* @.str.3, i64 0, i64 0), i32 %246)
  br label %284

248:                                              ; preds = %198, %184
  store i32 0, i32* %3, align 4
  br label %249

249:                                              ; preds = %267, %248
  %250 = load i32, i32* %3, align 4
  %251 = load i32, i32* %2, align 4
  %252 = sext i32 %251 to i64
  %253 = getelementptr inbounds [50 x i32], [50 x i32]* %4, i64 0, i64 %252
  %254 = load i32, i32* %253, align 4
  %255 = sub nsw i32 %254, 1
  %256 = icmp slt i32 %250, %255
  br i1 %256, label %257, label %270

257:                                              ; preds = %249
  %258 = load i32, i32* %2, align 4
  %259 = sext i32 %258 to i64
  %260 = getelementptr inbounds [50 x [20 x i8]], [50 x [20 x i8]]* %5, i64 0, i64 %259
  %261 = load i32, i32* %3, align 4
  %262 = sext i32 %261 to i64
  %263 = getelementptr inbounds [20 x i8], [20 x i8]* %260, i64 0, i64 %262
  %264 = load i8, i8* %263, align 1
  %265 = sext i8 %264 to i32
  %266 = call i32 (i8*, ...) @printf(i8* getelementptr inbounds ([3 x i8], [3 x i8]* @.str.2, i64 0, i64 0), i32 %265)
  br label %267

267:                                              ; preds = %257
  %268 = load i32, i32* %3, align 4
  %269 = add nsw i32 %268, 1
  store i32 %269, i32* %3, align 4
  br label %249

270:                                              ; preds = %249
  %271 = load i32, i32* %2, align 4
  %272 = sext i32 %271 to i64
  %273 = getelementptr inbounds [50 x [20 x i8]], [50 x [20 x i8]]* %5, i64 0, i64 %272
  %274 = load i32, i32* %2, align 4
  %275 = sext i32 %274 to i64
  %276 = getelementptr inbounds [50 x i32], [50 x i32]* %4, i64 0, i64 %275
  %277 = load i32, i32* %276, align 4
  %278 = sub nsw i32 %277, 1
  %279 = sext i32 %278 to i64
  %280 = getelementptr inbounds [20 x i8], [20 x i8]* %273, i64 0, i64 %279
  %281 = load i8, i8* %280, align 1
  %282 = sext i8 %281 to i32
  %283 = call i32 (i8*, ...) @printf(i8* getelementptr inbounds ([4 x i8], [4 x i8]* @.str.3, i64 0, i64 0), i32 %282)
  br label %284

284:                                              ; preds = %270, %234
  br label %285

285:                                              ; preds = %284, %170
  br label %286

286:                                              ; preds = %285, %106
  br label %287

287:                                              ; preds = %286
  %288 = load i32, i32* %2, align 4
  %289 = add nsw i32 %288, 1
  store i32 %289, i32* %2, align 4
  br label %38

290:                                              ; preds = %38
  ret void
}

declare dso_local i32 @__isoc99_scanf(i8*, ...) #1

; Function Attrs: nounwind readonly
declare dso_local i64 @strlen(i8*) #2

declare dso_local i32 @printf(i8*, ...) #1


!llvm.module.flags = !{!0}
!llvm.ident = !{!1}

!0 = !{i32 1, !"wchar_size", i32 4}
!1 = !{!"clang version 10.0.0-4ubuntu1 "}
